; Function Attrs: nounwind uwtable
define i32 @fdt_stringlist_count(ptr noundef %0, i32 noundef %1, ptr noundef readonly captures(none) %2) local_unnamed_addr #0 {
  %4 = alloca i32, align 4
  %5 = alloca i32, align 4
  call void @llvm.lifetime.start.p0(i64 4, ptr nonnull %5) #9
  %6 = tail call i64 @strlen(ptr noundef nonnull readonly dereferenceable(1) %2) #10
  %7 = trunc i64 %6 to i32
  call void @llvm.lifetime.start.p0(i64 4, ptr nonnull %4) #9
  %8 = call fastcc ptr @fdt_get_property_namelen_(ptr noundef %0, i32 noundef %1, ptr noundef nonnull readonly %2, i32 noundef %7, ptr noundef nonnull %5, ptr noundef nonnull %4)
  %.not.i.i = icmp eq ptr %8, null
  br i1 %.not.i.i, label %53, label %9

9:                                                ; preds = %3
  %10 = getelementptr inbounds nuw i8, ptr %0, i64 20
  %11 = load i8, ptr %10, align 1, !tbaa !3
  %12 = zext i8 %11 to i32
  %13 = shl nuw i32 %12, 24
  %14 = getelementptr inbounds nuw i8, ptr %0, i64 21
  %15 = load i8, ptr %14, align 1, !tbaa !3
  %16 = zext i8 %15 to i32
  %17 = shl nuw nsw i32 %16, 16
  %18 = or disjoint i32 %17, %13
  %19 = getelementptr inbounds nuw i8, ptr %0, i64 22
  %20 = load i8, ptr %19, align 1, !tbaa !3
  %21 = zext i8 %20 to i32
  %22 = shl nuw nsw i32 %21, 8
  %23 = or disjoint i32 %18, %22
  %24 = getelementptr inbounds nuw i8, ptr %0, i64 23
  %25 = load i8, ptr %24, align 1, !tbaa !3
  %26 = zext i8 %25 to i32
  %27 = or disjoint i32 %23, %26
  %28 = icmp ult i32 %27, 16
  br i1 %28, label %29, label %52

29:                                               ; preds = %9
  %30 = load i32, ptr %4, align 4, !tbaa !6
  %31 = and i32 %30, 7
  %.not11.i.i = icmp eq i32 %31, 4
  br i1 %.not11.i.i, label %52, label %32

32:                                               ; preds = %29
  %33 = getelementptr inbounds nuw i8, ptr %8, i64 4
  %34 = load i8, ptr %33, align 1, !tbaa !3
  %35 = zext i8 %34 to i32
  %36 = shl nuw i32 %35, 24
  %37 = getelementptr inbounds nuw i8, ptr %8, i64 5
  %38 = load i8, ptr %37, align 1, !tbaa !3
  %39 = zext i8 %38 to i32
  %40 = shl nuw nsw i32 %39, 16
  %41 = or disjoint i32 %40, %36
  %42 = getelementptr inbounds nuw i8, ptr %8, i64 6
  %43 = load i8, ptr %42, align 1, !tbaa !3
  %44 = zext i8 %43 to i32
  %45 = shl nuw nsw i32 %44, 8
  %46 = or disjoint i32 %41, %45
  %47 = getelementptr inbounds nuw i8, ptr %8, i64 7
  %48 = load i8, ptr %47, align 1, !tbaa !3
  %49 = zext i8 %48 to i32
  %50 = or disjoint i32 %46, %49
  %51 = icmp ugt i32 %50, 7
  br i1 %51, label %55, label %52

52:                                               ; preds = %32, %29, %9
  br label %55

53:                                               ; preds = %3
  call void @llvm.lifetime.end.p0(i64 4, ptr nonnull %4) #9
  %54 = load i32, ptr %5, align 4, !tbaa !6
  br label %.loopexit

55:                                               ; preds = %32, %52
  %.sink = phi i64 [ 12, %52 ], [ 16, %32 ]
  %56 = getelementptr inbounds nuw i8, ptr %8, i64 %.sink
  call void @llvm.lifetime.end.p0(i64 4, ptr nonnull %4) #9
  %57 = load i32, ptr %5, align 4, !tbaa !6
  %58 = sext i32 %57 to i64
  %59 = getelementptr inbounds i8, ptr %56, i64 %58
  %60 = ptrtoint ptr %59 to i64
  %61 = icmp sgt i32 %57, 0
  br i1 %61, label %.lr.ph, label %.loopexit

.lr.ph:                                           ; preds = %55, %70
  %.024 = phi i32 [ %71, %70 ], [ 0, %55 ]
  %.01623 = phi ptr [ %68, %70 ], [ %56, %55 ]
  %62 = ptrtoint ptr %.01623 to i64
  %63 = sub i64 %60, %62
  %64 = call i64 @strnlen(ptr noundef %.01623, i64 noundef %63) #10
  %65 = trunc i64 %64 to i32
  %66 = add i32 %65, 1
  store i32 %66, ptr %5, align 4, !tbaa !6
  %67 = sext i32 %66 to i64
  %68 = getelementptr inbounds i8, ptr %.01623, i64 %67
  %69 = icmp ugt ptr %68, %59
  br i1 %69, label %.loopexit, label %70

70:                                               ; preds = %.lr.ph
  %71 = add nuw nsw i32 %.024, 1
  %72 = icmp ult ptr %68, %59
  br i1 %72, label %.lr.ph, label %.loopexit, !llvm.loop !27

.loopexit:                                        ; preds = %.lr.ph, %70, %55, %53
  %.015 = phi i32 [ %54, %53 ], [ 0, %55 ], [ -15, %.lr.ph ], [ %71, %70 ]
  call void @llvm.lifetime.end.p0(i64 4, ptr nonnull %5) #9
  ret i32 %.015
}